target datalayout = "e-m:e-p270:32:32-p271:32:32-p272:64:64-i64:64-i128:128-f80:128-n8:16:32:64-S128"
target triple = "x86_64-pc-linux-gnu"

%struct.mi_option_desc_s = type { i64, i32, i32, ptr, ptr }
%struct.__va_list_tag = type { i32, i32, ptr, ptr }

@mi_max_error_count = internal global i64 16, align 8
@mi_error_handler = internal global ptr null, align 8
@mi_error_arg = internal global ptr null, align 8
@error_count = internal global i64 0, align 8
@.str.48 = private unnamed_addr constant [18 x i8] c"mimalloc: error: \00", align 1

; Function Attrs: nounwind uwtable
define hidden i64 @mi_option_get(i32 noundef %0) #0 {
  %2 = alloca i64, align 8
  %3 = alloca i32, align 4
  %4 = alloca ptr, align 8
  store i32 %0, ptr %3, align 4, !tbaa !3
  %5 = load i32, ptr %3, align 4, !tbaa !3
  %6 = icmp ult i32 %5, 0
  br i1 %6, label %10, label %7

7:                                                ; preds = %1
  %8 = load i32, ptr %3, align 4, !tbaa !3
  %9 = icmp uge i32 %8, 36
  br i1 %9, label %10, label %11

10:                                               ; preds = %7, %1
  store i64 0, ptr %2, align 8
  br label %31

11:                                               ; preds = %7
  call void @llvm.lifetime.start.p0(i64 8, ptr %4) #12
  %12 = load i32, ptr %3, align 4, !tbaa !3
  %13 = zext i32 %12 to i64
  %14 = getelementptr inbounds nuw [36 x %struct.mi_option_desc_s], ptr @options, i64 0, i64 %13
  store ptr %14, ptr %4, align 8, !tbaa !9
  %15 = load ptr, ptr %4, align 8, !tbaa !9
  %16 = getelementptr inbounds nuw %struct.mi_option_desc_s, ptr %15, i32 0, i32 1
  %17 = load i32, ptr %16, align 8, !tbaa !19
  %18 = icmp eq i32 %17, 0
  %19 = xor i1 %18, true
  %20 = xor i1 %19, true
  %21 = zext i1 %20 to i32
  %22 = sext i32 %21 to i64
  %23 = call i64 @llvm.expect.i64(i64 %22, i64 0)
  %24 = icmp ne i64 %23, 0
  br i1 %24, label %25, label %27

25:                                               ; preds = %11
  %26 = load ptr, ptr %4, align 8, !tbaa !9
  call void @mi_option_init(ptr noundef %26) #11
  br label %27

27:                                               ; preds = %25, %11
  %28 = load ptr, ptr %4, align 8, !tbaa !9
  %29 = getelementptr inbounds nuw %struct.mi_option_desc_s, ptr %28, i32 0, i32 0
  %30 = load i64, ptr %29, align 8, !tbaa !15
  store i64 %30, ptr %2, align 8
  call void @llvm.lifetime.end.p0(i64 8, ptr %4) #12
  br label %31

31:                                               ; preds = %27, %10
  %32 = load i64, ptr %2, align 8
  ret i64 %32
}

; Function Attrs: nounwind uwtable
define hidden zeroext i1 @mi_option_is_enabled(i32 noundef %0) #0 {
  %2 = alloca i32, align 4
  store i32 %0, ptr %2, align 4, !tbaa !3
  %3 = load i32, ptr %2, align 4, !tbaa !3
  %4 = call i64 @mi_option_get(i32 noundef %3) #11
  %5 = icmp ne i64 %4, 0
  ret i1 %5
}

; Function Attrs: nounwind uwtable
define internal void @mi_error_default(i32 noundef %0) #0 {
  %2 = alloca i32, align 4
  store i32 %0, ptr %2, align 4, !tbaa !3
  ret void
}

; Function Attrs: nounwind uwtable
define internal void @mi_show_error_message(ptr noundef %0, ptr noundef %1) #0 {
  %3 = alloca ptr, align 8
  %4 = alloca ptr, align 8
  %5 = alloca i64, align 8
  %6 = alloca i64, align 8
  store ptr %0, ptr %3, align 8, !tbaa !20
  store ptr %1, ptr %4, align 8, !tbaa !31
  %7 = call zeroext i1 @mi_option_is_enabled(i32 noundef 2) #11
  br i1 %7, label %22, label %8

8:                                                ; preds = %2
  %9 = call zeroext i1 @mi_option_is_enabled(i32 noundef 0) #11
  br i1 %9, label %11, label %10

10:                                               ; preds = %8
  br label %25

11:                                               ; preds = %8
  %12 = load i64, ptr @mi_max_error_count, align 8, !tbaa !7
  %13 = icmp sge i64 %12, 0
  br i1 %13, label %14, label %21

14:                                               ; preds = %11
  store i64 1, ptr %5, align 8, !tbaa !7
  %15 = load i64, ptr %5, align 8
  %16 = atomicrmw add ptr @error_count, i64 %15 acq_rel, align 8
  store i64 %16, ptr %6, align 8
  %17 = load i64, ptr %6, align 8, !tbaa !7
  %18 = load i64, ptr @mi_max_error_count, align 8, !tbaa !7
  %19 = icmp sgt i64 %17, %18
  br i1 %19, label %20, label %21

20:                                               ; preds = %14
  br label %25

21:                                               ; preds = %14, %11
  br label %22

22:                                               ; preds = %21, %2
  %23 = load ptr, ptr %3, align 8, !tbaa !20
  %24 = load ptr, ptr %4, align 8, !tbaa !31
  call void @mi_vfprintf_thread(ptr noundef null, ptr noundef null, ptr noundef @.str.48, ptr noundef %23, ptr noundef %24) #11
  br label %25

25:                                               ; preds = %22, %20, %10
  ret void
}

; Function Attrs: nounwind uwtable
define hidden void @_mi_error_message(i32 noundef %0, ptr noundef %1, ...) #0 {
  %3 = alloca i32, align 4
  %4 = alloca ptr, align 8
  %5 = alloca [1 x %struct.__va_list_tag], align 16
  %6 = alloca ptr, align 8
  store i32 %0, ptr %3, align 4, !tbaa !3
  store ptr %1, ptr %4, align 8, !tbaa !20
  call void @llvm.lifetime.start.p0(i64 24, ptr %5) #12
  %7 = getelementptr inbounds [1 x %struct.__va_list_tag], ptr %5, i64 0, i64 0
  call void @llvm.va_start.p0(ptr %7)
  %8 = load ptr, ptr %4, align 8, !tbaa !20
  %9 = getelementptr inbounds [1 x %struct.__va_list_tag], ptr %5, i64 0, i64 0
  call void @mi_show_error_message(ptr noundef %8, ptr noundef %9) #11
  %10 = getelementptr inbounds [1 x %struct.__va_list_tag], ptr %5, i64 0, i64 0
  call void @llvm.va_end.p0(ptr %10)
  %11 = load volatile ptr, ptr @mi_error_handler, align 8, !tbaa !18
  %12 = icmp ne ptr %11, null
  br i1 %12, label %13, label %18

13:                                               ; preds = %2
  %14 = load volatile ptr, ptr @mi_error_handler, align 8, !tbaa !18
  %15 = load i32, ptr %3, align 4, !tbaa !3
  %16 = load atomic i64, ptr @mi_error_arg acquire, align 8
  store i64 %16, ptr %6, align 8
  %17 = load ptr, ptr %6, align 8, !tbaa !18
  call void %14(i32 noundef %15, ptr noundef %17) #11
  br label %20

18:                                               ; preds = %2
  %19 = load i32, ptr %3, align 4, !tbaa !3
  call void @mi_error_default(i32 noundef %19) #11
  br label %20

20:                                               ; preds = %18, %13
  call void @llvm.lifetime.end.p0(i64 24, ptr %5) #12
  ret void
}