; Function Attrs: nounwind uwtable
define hidden void @_mi_error_message(i32 noundef %0, ptr noundef %1, ...) local_unnamed_addr #1 {
  %3 = alloca [1 x %struct.__va_list_tag], align 16
  call void @llvm.lifetime.start.p0(i64 24, ptr nonnull %3) #18
  call void @llvm.va_start.p0(ptr nonnull %3)
  %4 = load i32, ptr getelementptr inbounds nuw (i8, ptr @options, i64 72), align 8, !tbaa !8
  %5 = icmp eq i32 %4, 0
  br i1 %5, label %6, label %mi_option_is_enabled.exit.i, !prof !13

6:                                                ; preds = %2
  call fastcc void @mi_option_init(ptr noundef nonnull getelementptr inbounds nuw (i8, ptr @options, i64 64)) #17
  br label %mi_option_is_enabled.exit.i

mi_option_is_enabled.exit.i:                      ; preds = %6, %2
  %7 = load i64, ptr getelementptr inbounds nuw (i8, ptr @options, i64 64), align 16, !tbaa !14
  %.not.i = icmp eq i64 %7, 0
  br i1 %.not.i, label %8, label %20

8:                                                ; preds = %mi_option_is_enabled.exit.i
  %9 = load i32, ptr getelementptr inbounds nuw (i8, ptr @options, i64 8), align 8, !tbaa !8
  %10 = icmp eq i32 %9, 0
  br i1 %10, label %11, label %mi_option_is_enabled.exit3.i, !prof !13

11:                                               ; preds = %8
  call fastcc void @mi_option_init(ptr noundef nonnull @options) #17
  br label %mi_option_is_enabled.exit3.i

mi_option_is_enabled.exit3.i:                     ; preds = %11, %8
  %12 = load i64, ptr @options, align 16, !tbaa !14
  %.not4.i = icmp eq i64 %12, 0
  br i1 %.not4.i, label %mi_show_error_message.exit, label %13

13:                                               ; preds = %mi_option_is_enabled.exit3.i
  %14 = load i64, ptr @mi_max_error_count, align 8, !tbaa !15
  %15 = icmp sgt i64 %14, -1
  br i1 %15, label %16, label %20

16:                                               ; preds = %13
  %17 = atomicrmw add ptr @error_count, i64 1 acq_rel, align 8
  %18 = load i64, ptr @mi_max_error_count, align 8, !tbaa !15
  %19 = icmp sgt i64 %17, %18
  br i1 %19, label %mi_show_error_message.exit, label %20

20:                                               ; preds = %16, %13, %mi_option_is_enabled.exit.i
  call fastcc void @mi_vfprintf_thread(ptr noundef nonnull @.str.48, ptr noundef %1, ptr noundef nonnull %3) #17
  br label %mi_show_error_message.exit

mi_show_error_message.exit:                       ; preds = %mi_option_is_enabled.exit3.i, %16, %20
  call void @llvm.va_end.p0(ptr nonnull %3)
  %21 = load volatile ptr, ptr @mi_error_handler, align 8, !tbaa !6
  %.not = icmp eq ptr %21, null
  br i1 %.not, label %26, label %22

22:                                               ; preds = %mi_show_error_message.exit
  %23 = load volatile ptr, ptr @mi_error_handler, align 8, !tbaa !6
  %24 = load atomic i64, ptr @mi_error_arg acquire, align 8
  %25 = inttoptr i64 %24 to ptr
  call void %23(i32 noundef %0, ptr noundef %25) #16
  br label %26

26:                                               ; preds = %mi_show_error_message.exit, %22
  call void @llvm.lifetime.end.p0(i64 24, ptr nonnull %3) #18
  ret void
}